; Function Attrs: nounwind uwtable
define internal noundef i32 @operator_clear(ptr noundef readonly captures(none) %0) #0 {
  %2 = getelementptr i8, ptr %0, i64 32
  %.val = load ptr, ptr %2, align 8, !tbaa !4
  %3 = getelementptr inbounds nuw i8, ptr %.val, i64 8
  %4 = load ptr, ptr %3, align 8, !tbaa !17
  %.not = icmp eq ptr %4, null
  br i1 %.not, label %Py_DECREF.exit, label %5

5:                                                ; preds = %1
  store ptr null, ptr %3, align 8, !tbaa !17
  %6 = load i32, ptr %4, align 8, !tbaa !18
  %.not.i = icmp sgt i32 %6, -1
  br i1 %.not.i, label %7, label %Py_DECREF.exit

7:                                                ; preds = %5
  %8 = add nsw i32 %6, -1
  store i32 %8, ptr %4, align 8, !tbaa !18
  %9 = icmp eq i32 %8, 0
  br i1 %9, label %10, label %Py_DECREF.exit

10:                                               ; preds = %7
  tail call void @_Py_Dealloc(ptr noundef nonnull %4) #7
  br label %Py_DECREF.exit

Py_DECREF.exit:                                   ; preds = %10, %7, %5, %1
  %11 = load ptr, ptr %.val, align 8, !tbaa !17
  %.not18 = icmp eq ptr %11, null
  br i1 %.not18, label %Py_DECREF.exit21, label %12

12:                                               ; preds = %Py_DECREF.exit
  store ptr null, ptr %.val, align 8, !tbaa !17
  %13 = load i32, ptr %11, align 8, !tbaa !18
  %.not.i20 = icmp sgt i32 %13, -1
  br i1 %.not.i20, label %14, label %Py_DECREF.exit21

14:                                               ; preds = %12
  %15 = add nsw i32 %13, -1
  store i32 %15, ptr %11, align 8, !tbaa !18
  %16 = icmp eq i32 %15, 0
  br i1 %16, label %17, label %Py_DECREF.exit21

17:                                               ; preds = %14
  tail call void @_Py_Dealloc(ptr noundef nonnull %11) #7
  br label %Py_DECREF.exit21

Py_DECREF.exit21:                                 ; preds = %17, %14, %12, %Py_DECREF.exit
  %18 = getelementptr inbounds nuw i8, ptr %.val, i64 16
  %19 = load ptr, ptr %18, align 8, !tbaa !17
  %.not19 = icmp eq ptr %19, null
  br i1 %.not19, label %Py_DECREF.exit23, label %20

20:                                               ; preds = %Py_DECREF.exit21
  store ptr null, ptr %18, align 8, !tbaa !17
  %21 = load i32, ptr %19, align 8, !tbaa !18
  %.not.i22 = icmp sgt i32 %21, -1
  br i1 %.not.i22, label %22, label %Py_DECREF.exit23

22:                                               ; preds = %20
  %23 = add nsw i32 %21, -1
  store i32 %23, ptr %19, align 8, !tbaa !18
  %24 = icmp eq i32 %23, 0
  br i1 %24, label %25, label %Py_DECREF.exit23

25:                                               ; preds = %22
  tail call void @_Py_Dealloc(ptr noundef nonnull %19) #7
  br label %Py_DECREF.exit23

Py_DECREF.exit23:                                 ; preds = %25, %22, %20, %Py_DECREF.exit21
  ret i32 0
}